; Function Attrs: nounwind uwtable
define ptr @Gia_PolynCoreDetectTest(ptr noundef %0, i32 noundef %1, i32 noundef %2, i32 noundef %3) local_unnamed_addr #0 {
  %.not = icmp eq i32 %1, 0
  br i1 %.not, label %7, label %5

5:                                                ; preds = %4
  %6 = tail call ptr @Gia_PolynAddHaRoots(ptr noundef %0)
  br label %8

7:                                                ; preds = %4
  %calloc = tail call dereferenceable_or_null(16) ptr @calloc(i64 1, i64 16)
  br label %8

8:                                                ; preds = %7, %5
  %9 = phi ptr [ %6, %5 ], [ %calloc, %7 ]
  %10 = tail call ptr @Gia_PolynCoreDetectTest_int(ptr noundef %0, ptr noundef %9, i32 noundef %2, i32 noundef %3)
  %11 = getelementptr i8, ptr %0, i64 72
  %.val9 = load ptr, ptr %11, align 8, !tbaa !33
  %12 = getelementptr i8, ptr %.val9, i64 4
  %.val9.val = load i32, ptr %12, align 4, !tbaa !29
  %13 = getelementptr i8, ptr %9, i64 4
  %.val = load i32, ptr %13, align 4, !tbaa !29
  %14 = tail call i32 (ptr, ...) @printf(ptr noundef nonnull dereferenceable(1) @.str.8, i32 noundef %.val9.val, i32 noundef %.val)
  %15 = getelementptr inbounds nuw i8, ptr %9, i64 8
  %16 = load ptr, ptr %15, align 8, !tbaa !31
  %.not.i = icmp eq ptr %16, null
  br i1 %.not.i, label %Vec_IntFree.exit, label %17

17:                                               ; preds = %8
  tail call void @free(ptr noundef nonnull %16) #19
  br label %Vec_IntFree.exit

Vec_IntFree.exit:                                 ; preds = %8, %17
  tail call void @free(ptr noundef nonnull %9) #19
  ret ptr %10
}